; Function Attrs: mustprogress nounwind uwtable
define hidden noundef ptr @_ZN8AndLNode8IdentityEP8PhaseGVN(ptr noundef nonnull align 8 dereferenceable(52) %0, ptr nocapture noundef readonly %1) unnamed_addr #0 align 2 {
  %3 = getelementptr inbounds i8, ptr %0, i64 8
  %4 = load ptr, ptr %3, align 8
  %5 = getelementptr inbounds i8, ptr %4, i64 8
  %6 = load ptr, ptr %5, align 8
  %7 = getelementptr inbounds i8, ptr %4, i64 16
  %8 = load ptr, ptr %7, align 8
  %9 = icmp eq ptr %6, %8
  br i1 %9, label %84, label %10

10:                                               ; preds = %2
  %11 = getelementptr inbounds i8, ptr %1, i64 40
  %12 = load ptr, ptr %11, align 8
  %13 = getelementptr inbounds i8, ptr %8, i64 40
  %14 = load i32, ptr %13, align 8
  %15 = getelementptr inbounds i8, ptr %12, i64 16
  %16 = load ptr, ptr %15, align 8
  %17 = zext i32 %14 to i64
  %18 = getelementptr inbounds ptr, ptr %16, i64 %17
  %19 = load ptr, ptr %18, align 8
  %20 = getelementptr inbounds i8, ptr %19, i64 16
  %21 = load i32, ptr %20, align 8
  %22 = icmp ne i32 %21, 4
  %.not35 = icmp eq ptr %19, null
  %.not = or i1 %.not35, %22
  br i1 %.not, label %82, label %23

23:                                               ; preds = %10
  %24 = getelementptr inbounds i8, ptr %19, i64 24
  %25 = load i64, ptr %24, align 8
  %26 = getelementptr inbounds i8, ptr %19, i64 32
  %27 = load i64, ptr %26, align 8
  %28 = icmp eq i64 %25, %27
  br i1 %28, label %29, label %82

29:                                               ; preds = %23
  %30 = getelementptr inbounds i8, ptr %6, i64 40
  %31 = load i32, ptr %30, align 8
  %32 = zext i32 %31 to i64
  %33 = getelementptr inbounds ptr, ptr %16, i64 %32
  %34 = load ptr, ptr %33, align 8
  %35 = getelementptr inbounds i8, ptr %34, i64 16
  %36 = load i32, ptr %35, align 8
  %37 = icmp ne i32 %36, 4
  %.not3136 = icmp eq ptr %34, null
  %.not31 = or i1 %.not3136, %37
  br i1 %.not31, label %49, label %38

38:                                               ; preds = %29
  %39 = getelementptr inbounds i8, ptr %34, i64 24
  %40 = load i64, ptr %39, align 8
  %41 = icmp sgt i64 %40, -1
  br i1 %41, label %42, label %49

42:                                               ; preds = %38
  %43 = getelementptr inbounds i8, ptr %34, i64 32
  %44 = load i64, ptr %43, align 8
  %45 = tail call range(i64 0, 65) i64 @llvm.ctlz.i64(i64 %44, i1 true)
  %46 = lshr i64 -1, %45
  %47 = and i64 %46, %25
  %48 = icmp eq i64 %47, %46
  br i1 %48, label %84, label %49

49:                                               ; preds = %42, %38, %29
  %50 = load ptr, ptr %6, align 8
  %51 = load ptr, ptr %50, align 8
  %52 = tail call noundef i32 %51(ptr noundef nonnull align 8 dereferenceable(52) %6) #10
  %53 = icmp eq i32 %52, 352
  br i1 %53, label %54, label %82

54:                                               ; preds = %49
  %55 = getelementptr inbounds i8, ptr %6, i64 8
  %56 = load ptr, ptr %55, align 8
  %57 = getelementptr inbounds i8, ptr %56, i64 16
  %58 = load ptr, ptr %57, align 8
  %59 = load ptr, ptr %11, align 8
  %60 = getelementptr inbounds i8, ptr %58, i64 40
  %61 = load i32, ptr %60, align 8
  %62 = getelementptr inbounds i8, ptr %59, i64 16
  %63 = load ptr, ptr %62, align 8
  %64 = zext i32 %61 to i64
  %65 = getelementptr inbounds ptr, ptr %63, i64 %64
  %66 = load ptr, ptr %65, align 8
  %67 = getelementptr inbounds i8, ptr %66, i64 16
  %68 = load i32, ptr %67, align 8
  %69 = icmp ne i32 %68, 3
  %.not3237 = icmp eq ptr %66, null
  %.not32 = or i1 %.not3237, %69
  br i1 %.not32, label %82, label %70

70:                                               ; preds = %54
  %71 = getelementptr inbounds i8, ptr %66, i64 24
  %72 = load i32, ptr %71, align 8
  %73 = getelementptr inbounds i8, ptr %66, i64 28
  %74 = load i32, ptr %73, align 4
  %75 = icmp eq i32 %72, %74
  br i1 %75, label %76, label %82

76:                                               ; preds = %70
  %77 = and i32 %72, 63
  %78 = zext nneg i32 %77 to i64
  %79 = lshr i64 -1, %78
  %80 = and i64 %79, %25
  %81 = icmp eq i64 %80, %79
  br i1 %81, label %84, label %82

82:                                               ; preds = %49, %76, %70, %54, %23, %10
  %83 = tail call noundef ptr @_ZN7MulNode8IdentityEP8PhaseGVN(ptr noundef nonnull align 8 dereferenceable(52) %0, ptr noundef nonnull %1)
  br label %84

84:                                               ; preds = %2, %76, %42, %82
  %.0 = phi ptr [ %83, %82 ], [ %6, %42 ], [ %6, %76 ], [ %6, %2 ]
  ret ptr %.0
}